target datalayout = "e-m:e-p270:32:32-p271:32:32-p272:64:64-i64:64-i128:128-f80:128-n8:16:32:64-S128"
target triple = "x86_64-pc-linux-gnu"

@stderr = external global ptr, align 8
@displayLevel = internal global i32 2, align 4
@.str.115 = private unnamed_addr constant [22 x i8] c"Incorrect parameters\0A\00", align 1

; Function Attrs: nounwind uwtable
define internal i32 @badusage(ptr noundef %0) #0 {
  %2 = alloca ptr, align 8
  store ptr %0, ptr %2, align 8, !tbaa !11
  br label %3

3:                                                ; preds = %1
  %4 = load i32, ptr @displayLevel, align 4, !tbaa !4
  %5 = icmp uge i32 %4, 1
  br i1 %5, label %6, label %9

6:                                                ; preds = %3
  %7 = load ptr, ptr @stderr, align 8, !tbaa !17
  %8 = call i32 (ptr, ptr, ...) @fprintf(ptr noundef %7, ptr noundef @.str.115) #12
  br label %9

9:                                                ; preds = %6, %3
  br label %10

10:                                               ; preds = %9
  %11 = load i32, ptr @displayLevel, align 4, !tbaa !4
  %12 = icmp uge i32 %11, 1
  br i1 %12, label %13, label %16

13:                                               ; preds = %10
  %14 = load ptr, ptr %2, align 8, !tbaa !11
  %15 = call i32 @usage(ptr noundef %14)
  br label %16

16:                                               ; preds = %13, %10
  call void @exit(i32 noundef 1) #15
  unreachable
}