; Function Attrs: cold nofree noreturn nounwind uwtable
define internal fastcc void @badusage(ptr noundef %0) unnamed_addr #10 {
  %2 = load i32, ptr @displayLevel, align 4, !tbaa !9
  %.not = icmp eq i32 %2, 0
  br i1 %.not, label %.thread, label %3

3:                                                ; preds = %1
  %4 = load ptr, ptr @stderr, align 8, !tbaa !11
  %5 = tail call i64 @fwrite(ptr nonnull @.str.115, i64 21, i64 1, ptr %4) #26
  %.pr = load i32, ptr @displayLevel, align 4, !tbaa !9
  %.not1 = icmp eq i32 %.pr, 0
  br i1 %.not1, label %.thread, label %6

6:                                                ; preds = %3
  tail call fastcc void @usage(ptr noundef %0)
  br label %.thread

.thread:                                          ; preds = %1, %6, %3
  tail call void @exit(i32 noundef 1) #27
  unreachable
}